
Discarded input sections

 .comment       0x0000000000000000       0x2f build/framebuffer.o
 .comment       0x0000000000000000       0x2f build/image.o
 .comment       0x0000000000000000       0x2f build/level.o
 .comment       0x0000000000000000       0x2f build/main.o
 .comment       0x0000000000000000       0x2f build/mbox.o
 .comment       0x0000000000000000       0x2f build/snes.o
 .comment       0x0000000000000000       0x2f build/ssp.o
 .comment       0x0000000000000000       0x2f build/uart.o

Memory Configuration

Name             Origin             Length             Attributes
*default*        0x0000000000000000 0xffffffffffffffff

Linker script and memory map

LOAD build/start.o
LOAD build/framebuffer.o
LOAD build/image.o
LOAD build/level.o
LOAD build/main.o
LOAD build/mbox.o
LOAD build/snes.o
LOAD build/ssp.o
LOAD build/uart.o
                0x0000000000080000                . = 0x80000

.text           0x0000000000080000     0x16f4
 *(.text.boot)
 .text.boot     0x0000000000080000       0x50 build/start.o
                0x0000000000080000                _start
 *(.text .text.* .gnu.linkonce.t*)
 .text          0x0000000000080050        0x0 build/start.o
 .text          0x0000000000080050      0x5d4 build/framebuffer.o
                0x0000000000080050                init_framebuffer
                0x0000000000080354                drawPixel
                0x00000000000803b0                fillScreen
                0x0000000000080434                drawRect
                0x0000000000080524                drawImage
 .text          0x0000000000080624        0x0 build/image.o
 .text          0x0000000000080624      0x274 build/level.o
                0x0000000000080624                drawLevel1
 .text          0x0000000000080898      0x798 build/main.o
                0x0000000000080898                printf
                0x00000000000808b8                main
 .text          0x0000000000081030       0xac build/mbox.o
                0x0000000000081030                mbox_call
 .text          0x00000000000810dc      0x2f0 build/snes.o
                0x00000000000810dc                writeClock
                0x0000000000081130                writeLatch
                0x0000000000081184                readData
                0x00000000000811c8                init_snes_lines
                0x000000000008129c                read_snes
                0x000000000008137c                wait
 .text          0x00000000000813cc       0x1c build/ssp.o
                0x00000000000813cc                __stack_chk_fail
 .text          0x00000000000813e8      0x30c build/uart.o
                0x00000000000813e8                spin_for_cycles
                0x000000000008141c                uart_init
                0x0000000000081588                uart_send
                0x00000000000815c8                uart_getc
                0x0000000000081618                uart_puts
                0x0000000000081674                uart_hex

.iplt           0x00000000000816f4        0x0
 .iplt          0x00000000000816f4        0x0 build/start.o

.rodata         0x00000000000816f8   0x19b7a2
 *(.rodata .rodata.* .gnu.linkonce.r*)
 .rodata        0x00000000000816f8     0x8050 build/level.o
 .rodata        0x0000000000089748   0x193730 build/main.o
 .rodata        0x000000000021ce78       0x22 build/ssp.o
                [!provide]                        PROVIDE (_data = .)

.rela.dyn       0x000000000021cea0        0x0
 .rela.iplt     0x000000000021cea0        0x0 build/start.o
 .rela.text.boot
                0x000000000021cea0        0x0 build/start.o

.data           0x000000000021cea0   0x2ac670
 *(.data .data.* .gnu.linkonce.d*)
 .data          0x000000000021cea0        0x0 build/start.o
 .data          0x000000000021cea0        0x0 build/framebuffer.o
 .data          0x000000000021cea0   0x2ac668 build/image.o
                0x000000000021cea0                imgData0
                0x000000000021dea0                imgData1
                0x000000000021eea0                imgData2
                0x000000000021fea0                imgData3
                0x0000000000220ea0                imgData4
                0x0000000000221ea0                imgData5
                0x0000000000222ea0                imgData6
                0x0000000000223ea0                imgData7
                0x0000000000224ea0                imgData8
                0x0000000000225ea0                startData0
                0x0000000000239720                continueData1
                0x000000000024cfa0                gameoverData2
                0x0000000000260820                startoverData3
                0x00000000002740a0                pausedData4
                0x0000000000287920                quitData5
                0x000000000029b1a0                blackpointer
                0x000000000029c1a0                imgData30
                0x00000000003903e0                windata0
                0x00000000003e8220                loseData
                0x0000000000440060                imgData300
                0x000000000045d520                imgData50
                0x0000000000461520                imgData60
                0x0000000000465520                imgData70
                0x0000000000469520                imgData80
                0x000000000046d520                imgData90
                0x0000000000471520                imgData100
                0x00000000004c9360                tilemap
 .data          0x00000000004c9508        0x0 build/level.o
 .data          0x00000000004c9508        0x0 build/main.o
 .data          0x00000000004c9508        0x0 build/mbox.o
 .data          0x00000000004c9508        0x8 build/snes.o
 .data          0x00000000004c9510        0x0 build/ssp.o
 .data          0x00000000004c9510        0x0 build/uart.o

.igot.plt       0x00000000004c9510        0x0
 .igot.plt      0x00000000004c9510        0x0 build/start.o

.bss            0x00000000004c9510      0xd60
                0x00000000004c9510                . = ALIGN (0x10)
                0x00000000004c9510                __bss_start = .
 *(.bss .bss.*)
 .bss           0x00000000004c9510        0x0 build/start.o
 .bss           0x00000000004c9510       0x18 build/framebuffer.o
                0x00000000004c9510                width
                0x00000000004c9514                height
                0x00000000004c9518                pitch
                0x00000000004c9520                framebuffer
 .bss           0x00000000004c9528        0x0 build/image.o
 .bss           0x00000000004c9528      0xcb4 build/level.o
                0x00000000004c9528                gameStage
 .bss           0x00000000004ca1dc        0x4 build/main.o
                0x00000000004ca1dc                gameStart
 .bss           0x00000000004ca1e0       0x90 build/mbox.o
                0x00000000004ca1e0                mbox
 .bss           0x00000000004ca270        0x0 build/snes.o
 .bss           0x00000000004ca270        0x0 build/ssp.o
 .bss           0x00000000004ca270        0x0 build/uart.o
 *(COMMON)
                0x00000000004ca270                __bss_end = .
                0x00000000004ca270                _end = .

/DISCARD/
 *(.comment)
 *(.gnu*)
 *(.note*)
 *(.eh_frame*)
                0x00000000000001ac                __bss_size = ((__bss_end - __bss_start) >> 0x3)
OUTPUT(kernel8.elf elf64-littleaarch64)
LOAD linker stubs

.debug_info     0x0000000000000000     0x149c
 .debug_info    0x0000000000000000      0x347 build/framebuffer.o
 .debug_info    0x0000000000000347      0x32b build/image.o
 .debug_info    0x0000000000000672      0x48a build/level.o
 .debug_info    0x0000000000000afc      0x4a1 build/main.o
 .debug_info    0x0000000000000f9d       0xba build/mbox.o
 .debug_info    0x0000000000001057      0x234 build/snes.o
 .debug_info    0x000000000000128b       0x68 build/ssp.o
 .debug_info    0x00000000000012f3      0x1a9 build/uart.o

.debug_abbrev   0x0000000000000000      0x806
 .debug_abbrev  0x0000000000000000      0x132 build/framebuffer.o
 .debug_abbrev  0x0000000000000132       0xae build/image.o
 .debug_abbrev  0x00000000000001e0      0x14d build/level.o
 .debug_abbrev  0x000000000000032d      0x1a8 build/main.o
 .debug_abbrev  0x00000000000004d5       0x98 build/mbox.o
 .debug_abbrev  0x000000000000056d      0x113 build/snes.o
 .debug_abbrev  0x0000000000000680       0x60 build/ssp.o
 .debug_abbrev  0x00000000000006e0      0x126 build/uart.o

.debug_aranges  0x0000000000000000      0x170
 .debug_aranges
                0x0000000000000000       0x30 build/framebuffer.o
 .debug_aranges
                0x0000000000000030       0x20 build/image.o
 .debug_aranges
                0x0000000000000050       0x30 build/level.o
 .debug_aranges
                0x0000000000000080       0x30 build/main.o
 .debug_aranges
                0x00000000000000b0       0x30 build/mbox.o
 .debug_aranges
                0x00000000000000e0       0x30 build/snes.o
 .debug_aranges
                0x0000000000000110       0x30 build/ssp.o
 .debug_aranges
                0x0000000000000140       0x30 build/uart.o

.debug_line     0x0000000000000000      0xa45
 .debug_line    0x0000000000000000      0x1e6 build/framebuffer.o
 .debug_line    0x00000000000001e6       0x3f build/image.o
 .debug_line    0x0000000000000225      0x195 build/level.o
 .debug_line    0x00000000000003ba      0x2d3 build/main.o
 .debug_line    0x000000000000068d       0x9b build/mbox.o
 .debug_line    0x0000000000000728      0x148 build/snes.o
 .debug_line    0x0000000000000870       0x5c build/ssp.o
 .debug_line    0x00000000000008cc      0x179 build/uart.o

.debug_str      0x0000000000000000      0x434
 .debug_str     0x0000000000000000       0xde build/framebuffer.o
                                        0x10f (size before relaxing)
 .debug_str     0x00000000000000de      0x12b build/image.o
                                        0x1a4 (size before relaxing)
 .debug_str     0x0000000000000209      0x106 build/level.o
                                        0x1a6 (size before relaxing)
 .debug_str     0x000000000000030f       0x89 build/main.o
                                        0x1d9 (size before relaxing)
 .debug_str     0x0000000000000398       0x7e build/mbox.o
 .debug_str     0x0000000000000398       0x54 build/snes.o
                                        0x145 (size before relaxing)
 .debug_str     0x00000000000003ec       0x11 build/ssp.o
                                         0x62 (size before relaxing)
 .debug_str     0x00000000000003fd       0x37 build/uart.o
                                         0xc4 (size before relaxing)

.debug_line_str
                0x0000000000000000      0x150
 .debug_line_str
                0x0000000000000000       0x6f build/framebuffer.o
                                         0xd7 (size before relaxing)
 .debug_line_str
                0x000000000000006f       0x17 build/image.o
                                         0xc6 (size before relaxing)
 .debug_line_str
                0x0000000000000086       0x58 build/level.o
                                        0x107 (size before relaxing)
 .debug_line_str
                0x00000000000000de       0x3b build/main.o
                                        0x11c (size before relaxing)
 .debug_line_str
                0x0000000000000119        0xe build/mbox.o
                                         0xbb (size before relaxing)
 .debug_line_str
                0x0000000000000127        0xe build/snes.o
                                         0xbb (size before relaxing)
 .debug_line_str
                0x0000000000000135        0xd build/ssp.o
                                         0xbf (size before relaxing)
 .debug_line_str
                0x0000000000000142        0xe build/uart.o
                                         0xc2 (size before relaxing)

.debug_frame    0x0000000000000000      0x388
 .debug_frame   0x0000000000000000       0xd0 build/framebuffer.o
 .debug_frame   0x00000000000000d0       0x38 build/level.o
 .debug_frame   0x0000000000000108       0x60 build/main.o
 .debug_frame   0x0000000000000168       0x30 build/mbox.o
 .debug_frame   0x0000000000000198       0xd0 build/snes.o
 .debug_frame   0x0000000000000268       0x30 build/ssp.o
 .debug_frame   0x0000000000000298       0xf0 build/uart.o
