
Discarded input sections

 .comment       0x0000000000000000       0x2f build/framebuffer.o
 .comment       0x0000000000000000       0x2f build/main.o
 .comment       0x0000000000000000       0x2f build/mbox.o
 .comment       0x0000000000000000       0x2f build/objects.o
 .comment       0x0000000000000000       0x2f build/screen.o
 .comment       0x0000000000000000       0x2f build/snes.o
 .comment       0x0000000000000000       0x2f build/ssp.o
 .comment       0x0000000000000000       0x2f build/uart.o

Memory Configuration

Name             Origin             Length             Attributes
*default*        0x0000000000000000 0xffffffffffffffff

Linker script and memory map

LOAD build/start.o
LOAD build/framebuffer.o
LOAD build/main.o
LOAD build/mbox.o
LOAD build/objects.o
LOAD build/screen.o
LOAD build/snes.o
LOAD build/ssp.o
LOAD build/uart.o
                0x0000000000080000                . = 0x80000

.text           0x0000000000080000     0x2ee8
 *(.text.boot)
 .text.boot     0x0000000000080000       0x50 build/start.o
                0x0000000000080000                _start
 *(.text .text.* .gnu.linkonce.t*)
 .text          0x0000000000080050        0x0 build/start.o
 .text          0x0000000000080050      0x7f0 build/framebuffer.o
                0x0000000000080050                init_framebuffer
                0x0000000000080354                drawPixel
                0x00000000000803b0                fillScreen
                0x0000000000080434                drawRect
                0x0000000000080524                drawImage
                0x0000000000080624                drawSquare
                0x00000000000806dc                drawCheckerboard
 .text          0x0000000000080840     0x1b44 build/main.o
                0x0000000000080840                printarts
                0x0000000000080860                wait
                0x00000000000808b0                initializeGPIO
                0x0000000000080940                writeLatch
                0x0000000000080994                writeClock
                0x00000000000809e8                readData
                0x0000000000080a0c                printMessage
                0x0000000000080c08                readSNES
                0x0000000000080cf0                getButton
                0x0000000000080d80                main
                0x0000000000080e40                playerInput
                0x0000000000081528                initializeGame
                0x00000000000818e4                gamePlay
                0x0000000000081a28                update
                0x0000000000082070                collisionDetection
                0x00000000000821ec                powerupCollision
                0x000000000008223c                checkExit
 .text          0x0000000000082384       0xac build/mbox.o
                0x0000000000082384                mbox_call
 .text          0x0000000000082430        0x0 build/objects.o
 .text          0x0000000000082430        0x0 build/screen.o
 .text          0x0000000000082430      0x790 build/snes.o
                0x0000000000082430                checkState
                0x00000000000824c8                initSNES
                0x000000000008259c                read_SNES
 .text          0x0000000000082bc0       0x1c build/ssp.o
                0x0000000000082bc0                __stack_chk_fail
 .text          0x0000000000082bdc      0x30c build/uart.o
                0x0000000000082bdc                spin_for_cycles
                0x0000000000082c10                uart_init
                0x0000000000082d7c                uart_send
                0x0000000000082dbc                uart_getc
                0x0000000000082e0c                uart_puts
                0x0000000000082e68                uart_hex

.iplt           0x0000000000082ee8        0x0
 .iplt          0x0000000000082ee8        0x0 build/start.o

.rodata         0x0000000000082ee8      0x33a
 *(.rodata .rodata.* .gnu.linkonce.r*)
 .rodata        0x0000000000082ee8      0x1d0 build/main.o
 .rodata        0x00000000000830b8      0x148 build/snes.o
 .rodata        0x0000000000083200       0x22 build/ssp.o
                [!provide]                        PROVIDE (_data = .)

.rela.dyn       0x0000000000083228        0x0
 .rela.iplt     0x0000000000083228        0x0 build/start.o
 .rela.text.boot
                0x0000000000083228        0x0 build/start.o

.data           0x0000000000083228       0x18
 *(.data .data.* .gnu.linkonce.d*)
 .data          0x0000000000083228        0x0 build/start.o
 .data          0x0000000000083228        0x0 build/framebuffer.o
 .data          0x0000000000083228        0x8 build/main.o
 .data          0x0000000000083230        0x0 build/mbox.o
 .data          0x0000000000083230        0x0 build/objects.o
 .data          0x0000000000083230        0x0 build/screen.o
 .data          0x0000000000083230       0x10 build/snes.o
                0x0000000000083230                buttonPressed
 .data          0x0000000000083240        0x0 build/ssp.o
 .data          0x0000000000083240        0x0 build/uart.o

.igot.plt       0x0000000000083240        0x0
 .igot.plt      0x0000000000083240        0x0 build/start.o

.bss            0x0000000000083240     0x3a10
                0x0000000000083240                . = ALIGN (0x10)
                0x0000000000083240                __bss_start = .
 *(.bss .bss.*)
 .bss           0x0000000000083240        0x0 build/start.o
 .bss           0x0000000000083240       0x18 build/framebuffer.o
                0x0000000000083240                width
                0x0000000000083244                height
                0x0000000000083248                pitch
                0x0000000000083250                framebuffer
 .bss           0x0000000000083258     0x395c build/main.o
                0x0000000000083258                game
                0x0000000000086ba0                currentStage
                0x0000000000086ba4                gameStart
                0x0000000000086ba5                paused
                0x0000000000086ba6                quit
                0x0000000000086ba7                startHighlighted
                0x0000000000086ba8                playAgain
                0x0000000000086ba9                waitOnPlayAgain
                0x0000000000086baa                spawnPowerups
                0x0000000000086bac                menuSelect
                0x0000000000086bb0                powerupTimer
 *fill*         0x0000000000086bb4        0xc 
 .bss           0x0000000000086bc0       0x90 build/mbox.o
                0x0000000000086bc0                mbox
 .bss           0x0000000000086c50        0x0 build/objects.o
 .bss           0x0000000000086c50        0x0 build/screen.o
 .bss           0x0000000000086c50        0x0 build/snes.o
 .bss           0x0000000000086c50        0x0 build/ssp.o
 .bss           0x0000000000086c50        0x0 build/uart.o
 *(COMMON)
                0x0000000000086c50                __bss_end = .
                0x0000000000086c50                _end = .

/DISCARD/
 *(.comment)
 *(.gnu*)
 *(.note*)
 *(.eh_frame*)
                0x0000000000000742                __bss_size = ((__bss_end - __bss_start) >> 0x3)
OUTPUT(kernel8.elf elf64-littleaarch64)
LOAD linker stubs

.debug_info     0x0000000000000000     0x169f
 .debug_info    0x0000000000000000      0x45d build/framebuffer.o
 .debug_info    0x000000000000045d      0xc7a build/main.o
 .debug_info    0x00000000000010d7       0xba build/mbox.o
 .debug_info    0x0000000000001191      0x2fd build/snes.o
 .debug_info    0x000000000000148e       0x68 build/ssp.o
 .debug_info    0x00000000000014f6      0x1a9 build/uart.o

.debug_abbrev   0x0000000000000000      0x7fb
 .debug_abbrev  0x0000000000000000      0x132 build/framebuffer.o
 .debug_abbrev  0x0000000000000132      0x328 build/main.o
 .debug_abbrev  0x000000000000045a       0x98 build/mbox.o
 .debug_abbrev  0x00000000000004f2      0x183 build/snes.o
 .debug_abbrev  0x0000000000000675       0x60 build/ssp.o
 .debug_abbrev  0x00000000000006d5      0x126 build/uart.o

.debug_aranges  0x0000000000000000      0x120
 .debug_aranges
                0x0000000000000000       0x30 build/framebuffer.o
 .debug_aranges
                0x0000000000000030       0x30 build/main.o
 .debug_aranges
                0x0000000000000060       0x30 build/mbox.o
 .debug_aranges
                0x0000000000000090       0x30 build/snes.o
 .debug_aranges
                0x00000000000000c0       0x30 build/ssp.o
 .debug_aranges
                0x00000000000000f0       0x30 build/uart.o

.debug_line     0x0000000000000000      0xf63
 .debug_line    0x0000000000000000      0x29c build/framebuffer.o
 .debug_line    0x000000000000029c      0x79d build/main.o
 .debug_line    0x0000000000000a39       0x9b build/mbox.o
 .debug_line    0x0000000000000ad4        0x0 build/objects.o
 .debug_line    0x0000000000000ad4        0x0 build/screen.o
 .debug_line    0x0000000000000ad4      0x2ba build/snes.o
 .debug_line    0x0000000000000d8e       0x5c build/ssp.o
 .debug_line    0x0000000000000dea      0x179 build/uart.o

.debug_str      0x0000000000000000      0x5fb
 .debug_str     0x0000000000000000      0x163 build/framebuffer.o
                                        0x194 (size before relaxing)
 .debug_str     0x0000000000000163      0x40f build/main.o
                                        0x4a9 (size before relaxing)
 .debug_str     0x0000000000000572       0x7e build/mbox.o
 .debug_str     0x0000000000000572       0x42 build/objects.o
 .debug_str     0x0000000000000572       0x42 build/screen.o
 .debug_str     0x0000000000000572       0x41 build/snes.o
                                        0x17c (size before relaxing)
 .debug_str     0x00000000000005b3       0x11 build/ssp.o
                                         0x62 (size before relaxing)
 .debug_str     0x00000000000005c4       0x37 build/uart.o
                                         0xc4 (size before relaxing)

.debug_line_str
                0x0000000000000000      0x179
 .debug_line_str
                0x0000000000000000       0x6c build/framebuffer.o
                                         0xd1 (size before relaxing)
 .debug_line_str
                0x000000000000006c       0xb5 build/main.o
                                        0x15c (size before relaxing)
 .debug_line_str
                0x0000000000000121        0xe build/mbox.o
                                         0xb5 (size before relaxing)
 .debug_line_str
                0x000000000000012f       0x11 build/objects.o
                                         0x5a (size before relaxing)
 .debug_line_str
                0x0000000000000140       0x10 build/screen.o
                                         0x59 (size before relaxing)
 .debug_line_str
                0x0000000000000150        0xe build/snes.o
                                         0xbc (size before relaxing)
 .debug_line_str
                0x000000000000015e        0xd build/ssp.o
                                         0xb9 (size before relaxing)
 .debug_line_str
                0x000000000000016b        0xe build/uart.o
                                         0xbc (size before relaxing)

.debug_frame    0x0000000000000000      0x628
 .debug_frame   0x0000000000000000      0x120 build/framebuffer.o
 .debug_frame   0x0000000000000120      0x270 build/main.o
 .debug_frame   0x0000000000000390       0x30 build/mbox.o
 .debug_frame   0x00000000000003c0      0x148 build/snes.o
 .debug_frame   0x0000000000000508       0x30 build/ssp.o
 .debug_frame   0x0000000000000538       0xf0 build/uart.o
